; Function Attrs: mustprogress uwtable
define void @_ZN9syscall_t10set_chrootEPKc(ptr noundef nonnull align 8 dereferenceable(176) %0, ptr noundef %1) local_unnamed_addr #3 align 2 {
  %3 = alloca [4096 x i8], align 16
  %4 = alloca [4096 x i8], align 16
  %5 = call ptr @getcwd(ptr noundef nonnull %3, i64 noundef 4096) #26
  %6 = icmp eq ptr %5, null
  br i1 %6, label %14, label %7

7:                                                ; preds = %2
  %8 = call i32 @chdir(ptr noundef %1) #26
  %.not = icmp eq i32 %8, 0
  br i1 %.not, label %9, label %14

9:                                                ; preds = %7
  %10 = call ptr @getcwd(ptr noundef nonnull %4, i64 noundef 4096) #26
  %11 = icmp eq ptr %10, null
  br i1 %11, label %14, label %12

12:                                               ; preds = %9
  %13 = call i32 @chdir(ptr noundef nonnull %3) #26
  %.not3 = icmp eq i32 %13, 0
  br i1 %.not3, label %17, label %14

14:                                               ; preds = %12, %9, %7, %2
  %15 = load ptr, ptr @stderr, align 8
  %16 = call i32 (ptr, ptr, ...) @fprintf(ptr noundef %15, ptr noundef nonnull @.str.6, ptr noundef %1) #32
  call void @exit(i32 noundef -1) #27
  unreachable

17:                                               ; preds = %12
  %18 = getelementptr inbounds i8, ptr %0, i64 144
  %19 = getelementptr inbounds i8, ptr %0, i64 152
  %20 = load i64, ptr %19, align 8
  %21 = call noundef i64 @strlen(ptr noundef nonnull dereferenceable(1) %4) #26
  %22 = call noundef nonnull align 8 dereferenceable(32) ptr @_ZNSt7__cxx1112basic_stringIcSt11char_traitsIcESaIcEE10_M_replaceEmmPKcm(ptr noundef nonnull align 8 dereferenceable(32) %18, i64 noundef 0, i64 noundef %20, ptr noundef nonnull %4, i64 noundef %21)
  ret void
}